target datalayout = "e-m:e-p270:32:32-p271:32:32-p272:64:64-i64:64-i128:128-f80:128-n8:16:32:64-S128"
target triple = "x86_64-pc-linux-gnu"

%union.ListCell = type { ptr }
%struct.List = type { i32, i32, i32, ptr, [0 x %union.ListCell] }
%struct.ForEachState = type { ptr, i32 }

; Function Attrs: nounwind uwtable
define internal void @list_free_private(ptr noundef %0, i1 noundef zeroext %1) #0 {
  %3 = alloca ptr, align 8
  %4 = alloca i8, align 1
  %5 = alloca i32, align 4
  store ptr %0, ptr %3, align 8
  %6 = zext i1 %1 to i8
  store i8 %6, ptr %4, align 1
  %7 = load ptr, ptr %3, align 8
  %8 = icmp eq ptr %7, null
  br i1 %8, label %9, label %10

9:                                                ; preds = %2
  br label %47

10:                                               ; preds = %2
  %11 = load i8, ptr %4, align 1, !range !29, !noundef !30
  %12 = trunc i8 %11 to i1
  br i1 %12, label %13, label %33

13:                                               ; preds = %10
  call void @llvm.lifetime.start.p0(i64 4, ptr %5) #7
  store i32 0, ptr %5, align 4
  br label %14

14:                                               ; preds = %29, %13
  %15 = load i32, ptr %5, align 4
  %16 = load ptr, ptr %3, align 8
  %17 = getelementptr inbounds nuw %struct.List, ptr %16, i32 0, i32 1
  %18 = load i32, ptr %17, align 4
  %19 = icmp slt i32 %15, %18
  br i1 %19, label %21, label %20

20:                                               ; preds = %14
  call void @llvm.lifetime.end.p0(i64 4, ptr %5) #7
  br label %32

21:                                               ; preds = %14
  %22 = load ptr, ptr %3, align 8
  %23 = getelementptr inbounds nuw %struct.List, ptr %22, i32 0, i32 3
  %24 = load ptr, ptr %23, align 8
  %25 = load i32, ptr %5, align 4
  %26 = sext i32 %25 to i64
  %27 = getelementptr inbounds %union.ListCell, ptr %24, i64 %26
  %28 = load ptr, ptr %27, align 8
  call void @pfree(ptr noundef %28)
  br label %29

29:                                               ; preds = %21
  %30 = load i32, ptr %5, align 4
  %31 = add i32 %30, 1
  store i32 %31, ptr %5, align 4
  br label %14, !llvm.loop !31

32:                                               ; preds = %20
  br label %33

33:                                               ; preds = %32, %10
  %34 = load ptr, ptr %3, align 8
  %35 = getelementptr inbounds nuw %struct.List, ptr %34, i32 0, i32 3
  %36 = load ptr, ptr %35, align 8
  %37 = load ptr, ptr %3, align 8
  %38 = getelementptr inbounds nuw %struct.List, ptr %37, i32 0, i32 4
  %39 = getelementptr inbounds [0 x %union.ListCell], ptr %38, i64 0, i64 0
  %40 = icmp ne ptr %36, %39
  br i1 %40, label %41, label %45

41:                                               ; preds = %33
  %42 = load ptr, ptr %3, align 8
  %43 = getelementptr inbounds nuw %struct.List, ptr %42, i32 0, i32 3
  %44 = load ptr, ptr %43, align 8
  call void @pfree(ptr noundef %44)
  br label %45

45:                                               ; preds = %41, %33
  %46 = load ptr, ptr %3, align 8
  call void @pfree(ptr noundef %46)
  br label %47

47:                                               ; preds = %45, %9
  ret void
}

; Function Attrs: nounwind uwtable
define dso_local void @list_free(ptr noundef %0) #0 {
  %2 = alloca ptr, align 8
  store ptr %0, ptr %2, align 8
  %3 = load ptr, ptr %2, align 8
  call void @list_free_private(ptr noundef %3, i1 noundef zeroext false)
  ret void
}

; Function Attrs: nounwind uwtable
define dso_local ptr @list_delete_nth_cell(ptr noundef %0, i32 noundef %1) #0 {
  %3 = alloca ptr, align 8
  %4 = alloca ptr, align 8
  %5 = alloca i32, align 4
  store ptr %0, ptr %4, align 8
  store i32 %1, ptr %5, align 4
  %6 = load ptr, ptr %4, align 8
  %7 = getelementptr inbounds nuw %struct.List, ptr %6, i32 0, i32 1
  %8 = load i32, ptr %7, align 4
  %9 = icmp eq i32 %8, 1
  br i1 %9, label %10, label %12

10:                                               ; preds = %2
  %11 = load ptr, ptr %4, align 8
  call void @list_free(ptr noundef %11)
  store ptr null, ptr %3, align 8
  br label %39

12:                                               ; preds = %2
  %13 = load ptr, ptr %4, align 8
  %14 = getelementptr inbounds nuw %struct.List, ptr %13, i32 0, i32 3
  %15 = load ptr, ptr %14, align 8
  %16 = load i32, ptr %5, align 4
  %17 = sext i32 %16 to i64
  %18 = getelementptr inbounds %union.ListCell, ptr %15, i64 %17
  %19 = load ptr, ptr %4, align 8
  %20 = getelementptr inbounds nuw %struct.List, ptr %19, i32 0, i32 3
  %21 = load ptr, ptr %20, align 8
  %22 = load i32, ptr %5, align 4
  %23 = add i32 %22, 1
  %24 = sext i32 %23 to i64
  %25 = getelementptr inbounds %union.ListCell, ptr %21, i64 %24
  %26 = load ptr, ptr %4, align 8
  %27 = getelementptr inbounds nuw %struct.List, ptr %26, i32 0, i32 1
  %28 = load i32, ptr %27, align 4
  %29 = sub i32 %28, 1
  %30 = load i32, ptr %5, align 4
  %31 = sub i32 %29, %30
  %32 = sext i32 %31 to i64
  %33 = mul i64 %32, 8
  call void @llvm.memmove.p0.p0.i64(ptr align 8 %18, ptr align 8 %25, i64 %33, i1 false)
  %34 = load ptr, ptr %4, align 8
  %35 = getelementptr inbounds nuw %struct.List, ptr %34, i32 0, i32 1
  %36 = load i32, ptr %35, align 4
  %37 = add i32 %36, -1
  store i32 %37, ptr %35, align 4
  %38 = load ptr, ptr %4, align 8
  store ptr %38, ptr %3, align 8
  br label %39

39:                                               ; preds = %12, %10
  %40 = load ptr, ptr %3, align 8
  ret ptr %40
}

; Function Attrs: nounwind uwtable
define dso_local ptr @list_delete_cell(ptr noundef %0, ptr noundef %1) #0 {
  %3 = alloca ptr, align 8
  %4 = alloca ptr, align 8
  store ptr %0, ptr %3, align 8
  store ptr %1, ptr %4, align 8
  %5 = load ptr, ptr %3, align 8
  %6 = load ptr, ptr %4, align 8
  %7 = load ptr, ptr %3, align 8
  %8 = getelementptr inbounds nuw %struct.List, ptr %7, i32 0, i32 3
  %9 = load ptr, ptr %8, align 8
  %10 = ptrtoint ptr %6 to i64
  %11 = ptrtoint ptr %9 to i64
  %12 = sub i64 %10, %11
  %13 = sdiv exact i64 %12, 8
  %14 = trunc i64 %13 to i32
  %15 = call ptr @list_delete_nth_cell(ptr noundef %5, i32 noundef %14)
  ret ptr %15
}

; Function Attrs: nounwind uwtable
define dso_local ptr @list_delete_int(ptr noundef %0, i32 noundef %1) #0 {
  %3 = alloca ptr, align 8
  %4 = alloca ptr, align 8
  %5 = alloca i32, align 4
  %6 = alloca ptr, align 8
  %7 = alloca %struct.ForEachState, align 8
  %8 = alloca i32, align 4
  store ptr %0, ptr %4, align 8
  store i32 %1, ptr %5, align 4
  call void @llvm.lifetime.start.p0(i64 8, ptr %6) #7
  call void @llvm.lifetime.start.p0(i64 16, ptr %7) #7
  %9 = getelementptr inbounds nuw %struct.ForEachState, ptr %7, i32 0, i32 0
  %10 = load ptr, ptr %4, align 8
  store ptr %10, ptr %9, align 8
  %11 = getelementptr inbounds nuw %struct.ForEachState, ptr %7, i32 0, i32 1
  store i32 0, ptr %11, align 8
  %12 = getelementptr i8, ptr %7, i64 12
  call void @llvm.memset.p0.i64(ptr align 4 %12, i8 0, i64 4, i1 false)
  br label %13

13:                                               ; preds = %49, %2
  %14 = getelementptr inbounds nuw %struct.ForEachState, ptr %7, i32 0, i32 0
  %15 = load ptr, ptr %14, align 8
  %16 = icmp ne ptr %15, null
  br i1 %16, label %17, label %34

17:                                               ; preds = %13
  %18 = getelementptr inbounds nuw %struct.ForEachState, ptr %7, i32 0, i32 1
  %19 = load i32, ptr %18, align 8
  %20 = getelementptr inbounds nuw %struct.ForEachState, ptr %7, i32 0, i32 0
  %21 = load ptr, ptr %20, align 8
  %22 = getelementptr inbounds nuw %struct.List, ptr %21, i32 0, i32 1
  %23 = load i32, ptr %22, align 4
  %24 = icmp slt i32 %19, %23
  br i1 %24, label %25, label %34

25:                                               ; preds = %17
  %26 = getelementptr inbounds nuw %struct.ForEachState, ptr %7, i32 0, i32 0
  %27 = load ptr, ptr %26, align 8
  %28 = getelementptr inbounds nuw %struct.List, ptr %27, i32 0, i32 3
  %29 = load ptr, ptr %28, align 8
  %30 = getelementptr inbounds nuw %struct.ForEachState, ptr %7, i32 0, i32 1
  %31 = load i32, ptr %30, align 8
  %32 = sext i32 %31 to i64
  %33 = getelementptr inbounds %union.ListCell, ptr %29, i64 %32
  store ptr %33, ptr %6, align 8
  br label %35

34:                                               ; preds = %17, %13
  store ptr null, ptr %6, align 8
  br label %35

35:                                               ; preds = %34, %25
  %36 = phi i32 [ 1, %25 ], [ 0, %34 ]
  %37 = icmp ne i32 %36, 0
  br i1 %37, label %39, label %38

38:                                               ; preds = %35
  store i32 2, ptr %8, align 4
  br label %53

39:                                               ; preds = %35
  %40 = load ptr, ptr %6, align 8
  %41 = load i32, ptr %40, align 8
  %42 = load i32, ptr %5, align 4
  %43 = icmp eq i32 %41, %42
  br i1 %43, label %44, label %48

44:                                               ; preds = %39
  %45 = load ptr, ptr %4, align 8
  %46 = load ptr, ptr %6, align 8
  %47 = call ptr @list_delete_cell(ptr noundef %45, ptr noundef %46)
  store ptr %47, ptr %3, align 8
  store i32 1, ptr %8, align 4
  br label %53

48:                                               ; preds = %39
  br label %49

49:                                               ; preds = %48
  %50 = getelementptr inbounds nuw %struct.ForEachState, ptr %7, i32 0, i32 1
  %51 = load i32, ptr %50, align 8
  %52 = add i32 %51, 1
  store i32 %52, ptr %50, align 8
  br label %13, !llvm.loop !12

53:                                               ; preds = %44, %38
  call void @llvm.lifetime.end.p0(i64 16, ptr %7) #7
  %54 = load i32, ptr %8, align 4
  switch i32 %54, label %57 [
    i32 2, label %55
  ]

55:                                               ; preds = %53
  %56 = load ptr, ptr %4, align 8
  store ptr %56, ptr %3, align 8
  store i32 1, ptr %8, align 4
  br label %57

57:                                               ; preds = %55, %53
  call void @llvm.lifetime.end.p0(i64 8, ptr %6) #7
  %58 = load ptr, ptr %3, align 8
  ret ptr %58
}